; Function Attrs: null_pointer_is_valid sspstrong uwtable
define hidden range(i32 -1, 2) i32 @netscreen_open(ptr noundef captures(none) %0, ptr noundef %1, ptr noundef %2) local_unnamed_addr #0 {
  %4 = alloca [128 x i8], align 16
  call void @llvm.lifetime.start.p0(i64 128, ptr nonnull %4) #8
  %5 = getelementptr inbounds nuw i8, ptr %4, i64 127
  store i8 0, ptr %5, align 1
  br label %6

6:                                                ; preds = %21, %3
  %.010.i = phi i32 [ 0, %3 ], [ %22, %21 ]
  %7 = load ptr, ptr %0, align 8
  %8 = call ptr @file_gets(ptr noundef nonnull %4, i32 noundef 128, ptr noundef %7)
  %9 = icmp eq ptr %8, null
  br i1 %9, label %10, label %13

10:                                               ; preds = %6
  %11 = load ptr, ptr %0, align 8
  %12 = call i32 @file_error(ptr noundef %11, ptr noundef %2)
  br label %.loopexit

13:                                               ; preds = %6
  %14 = call i64 @strlen(ptr noundef nonnull dereferenceable(1) %4) #9
  %15 = and i64 %14, 4294967288
  %16 = icmp eq i64 %15, 0
  br i1 %16, label %21, label %17

17:                                               ; preds = %13
  %18 = call ptr @strstr(ptr noundef nonnull dereferenceable(1) %4, ptr noundef nonnull dereferenceable(1) @.str.1) #9
  %.not.i = icmp eq ptr %18, null
  br i1 %.not.i, label %19, label %24

19:                                               ; preds = %17
  %20 = call ptr @strstr(ptr noundef nonnull dereferenceable(1) %4, ptr noundef nonnull dereferenceable(1) @.str.2) #9
  %.not9.i = icmp eq ptr %20, null
  br i1 %.not9.i, label %21, label %24

21:                                               ; preds = %19, %13
  %22 = add nuw nsw i32 %.010.i, 1
  %exitcond.not.i = icmp eq i32 %22, 32
  br i1 %exitcond.not.i, label %.loopexit, label %6, !llvm.loop !6

.loopexit:                                        ; preds = %21, %10
  %.sink.i = phi i32 [ %12, %10 ], [ 0, %21 ]
  store i32 %.sink.i, ptr %1, align 4
  call void @llvm.lifetime.end.p0(i64 128, ptr nonnull %4) #8
  %switch.selectcmp.case1 = icmp ne i32 %.sink.i, 0
  %switch.selectcmp.case2 = icmp ne i32 %.sink.i, -12
  %switch.selectcmp.not = and i1 %switch.selectcmp.case1, %switch.selectcmp.case2
  %23 = sext i1 %switch.selectcmp.not to i32
  br label %36

24:                                               ; preds = %19, %17
  call void @llvm.lifetime.end.p0(i64 128, ptr nonnull %4) #8
  %25 = load ptr, ptr %0, align 8
  %26 = call i64 @file_seek(ptr noundef %25, i64 noundef 0, i32 noundef 0, ptr noundef %1)
  %27 = icmp eq i64 %26, -1
  br i1 %27, label %36, label %28

28:                                               ; preds = %24
  %29 = getelementptr inbounds nuw i8, ptr %0, i64 144
  store i32 0, ptr %29, align 8
  %30 = load i32, ptr @netscreen_file_type_subtype, align 4
  %31 = getelementptr inbounds nuw i8, ptr %0, i64 20
  store i32 %30, ptr %31, align 4
  %32 = getelementptr inbounds nuw i8, ptr %0, i64 24
  store i32 0, ptr %32, align 8
  %33 = getelementptr inbounds nuw i8, ptr %0, i64 112
  store ptr @netscreen_read, ptr %33, align 8
  %34 = getelementptr inbounds nuw i8, ptr %0, i64 120
  store ptr @netscreen_seek_read, ptr %34, align 8
  %35 = getelementptr inbounds nuw i8, ptr %0, i64 148
  store i32 1, ptr %35, align 4
  br label %36

36:                                               ; preds = %.loopexit, %24, %28
  %.0 = phi i32 [ 1, %28 ], [ -1, %24 ], [ %23, %.loopexit ]
  ret i32 %.0
}